; Function Attrs: mustprogress nounwind uwtable
define dso_local void @_ZN4llvm8DebugLocC2EPKNS_10DILocationE(ptr noundef nonnull align 8 dereferenceable(8) initializes((0, 8)) %0, ptr noundef %1) unnamed_addr #0 align 2 {
  store ptr %1, ptr %0, align 8
  %.not.i.i.i = icmp eq ptr %1, null
  br i1 %.not.i.i.i, label %_ZN4llvm18TypedTrackingMDRefINS_6MDNodeEEC2EPS1_.exit, label %3

3:                                                ; preds = %2
  %4 = tail call noundef zeroext i1 @_ZN4llvm16MetadataTracking5trackEPvRNS_8MetadataENS_12PointerUnionIJPNS_15MetadataAsValueEPS2_PNS_14DebugValueUserEEEE(ptr noundef nonnull align 8 dereferenceable(8) %0, ptr noundef nonnull align 4 dereferenceable(8) %1, i64 1) #9
  br label %_ZN4llvm18TypedTrackingMDRefINS_6MDNodeEEC2EPS1_.exit

_ZN4llvm18TypedTrackingMDRefINS_6MDNodeEEC2EPS1_.exit: ; preds = %2, %3
  ret void
}